target datalayout = "e-m:e-p270:32:32-p271:32:32-p272:64:64-i64:64-i128:128-f80:128-n8:16:32:64-S128"
target triple = "x86_64-pc-linux-gnu"

%struct._zend_module_entry = type { i16, i32, i8, i8, ptr, ptr, ptr, ptr, ptr, ptr, ptr, ptr, ptr, ptr, i64, ptr, ptr, ptr, ptr, i32, i8, ptr, i32, ptr }

@.str.114 = private unnamed_addr constant [25 x i8] c"ZEND_DONT_UNLOAD_MODULES\00", align 1

; Function Attrs: nounwind uwtable
define hidden void @module_registry_unload(ptr noundef %0) #0 {
  %2 = alloca ptr, align 8
  store ptr %0, ptr %2, align 8, !tbaa !173
  %3 = call ptr @getenv(ptr noundef @.str.114) #21
  %4 = icmp ne ptr %3, null
  br i1 %4, label %10, label %5

5:                                                ; preds = %1
  %6 = load ptr, ptr %2, align 8, !tbaa !173
  %7 = getelementptr inbounds nuw %struct._zend_module_entry, ptr %6, i32 0, i32 21
  %8 = load ptr, ptr %7, align 8, !tbaa !196
  %9 = call i32 @dlclose(ptr noundef %8) #21
  br label %10

10:                                               ; preds = %5, %1
  ret void
}