; Function Attrs: nounwind uwtable
define hidden void @module_registry_unload(ptr noundef readonly captures(none) %0) local_unnamed_addr #2 {
  %2 = tail call ptr @getenv(ptr noundef nonnull @.str.114) #34
  %.not = icmp eq ptr %2, null
  br i1 %.not, label %3, label %7

3:                                                ; preds = %1
  %4 = getelementptr inbounds nuw i8, ptr %0, i64 144
  %5 = load ptr, ptr %4, align 8, !tbaa !200
  %6 = tail call i32 @dlclose(ptr noundef %5) #34
  br label %7

7:                                                ; preds = %3, %1
  ret void
}